; Function Attrs: nounwind uwtable
define ptr @l_Lean_SMap_foldStage2___rarg(ptr noundef readnone captures(none) %0, ptr noundef readnone captures(none) %1, ptr noundef readnone captures(none) %2, ptr noundef %3, ptr noundef %4, ptr noundef readonly captures(none) %5) local_unnamed_addr #0 {
  %7 = getelementptr inbounds nuw i8, ptr %5, i64 16
  %8 = load ptr, ptr %7, align 8, !tbaa !4
  %9 = ptrtoint ptr %8 to i64
  %10 = and i64 %9, 1
  %.not.i45.i = icmp eq i64 %10, 0
  br i1 %.not.i45.i, label %14, label %11

11:                                               ; preds = %6
  %12 = lshr i64 %9, 1
  %13 = trunc i64 %12 to i32
  br label %lean_obj_tag.exit.i

14:                                               ; preds = %6
  %15 = getelementptr i8, ptr %8, i64 4
  %.val.i.i = load i32, ptr %15, align 4
  %16 = lshr i32 %.val.i.i, 24
  br label %lean_obj_tag.exit.i

lean_obj_tag.exit.i:                              ; preds = %14, %11
  %.0.i46.i = phi i32 [ %13, %11 ], [ %16, %14 ]
  %17 = icmp eq i32 %.0.i46.i, 0
  %18 = getelementptr inbounds nuw i8, ptr %8, i64 8
  %19 = load ptr, ptr %18, align 8, !tbaa !4
  br i1 %17, label %lean_nat_lt.exit.i, label %31

lean_nat_lt.exit.i:                               ; preds = %lean_obj_tag.exit.i
  %20 = getelementptr i8, ptr %19, i64 8
  %.val.i = load i64, ptr %20, align 8, !tbaa !8
  %.mask.i = and i64 %.val.i, 9223372036854775807
  %.not.i = icmp eq i64 %.mask.i, 0
  br i1 %.not.i, label %lean_dec.exit34.i, label %lean_dec.exit.i

lean_dec.exit34.i:                                ; preds = %lean_nat_lt.exit.i
  %21 = ptrtoint ptr %3 to i64
  %22 = and i64 %21, 1
  %.not48.i = icmp eq i64 %22, 0
  br i1 %.not48.i, label %23, label %l_Lean_PersistentHashMap_foldlMAux___at_Lean_SMap_foldStage2___spec__2___rarg.exit

23:                                               ; preds = %lean_dec.exit34.i
  %24 = load i32, ptr %3, align 4, !tbaa !10
  %25 = icmp sgt i32 %24, 1
  br i1 %25, label %26, label %28, !prof !15

26:                                               ; preds = %23
  %27 = add nsw i32 %24, -1
  store i32 %27, ptr %3, align 4, !tbaa !10
  br label %l_Lean_PersistentHashMap_foldlMAux___at_Lean_SMap_foldStage2___spec__2___rarg.exit

28:                                               ; preds = %23
  %.not.i35.i = icmp eq i32 %24, 0
  br i1 %.not.i35.i, label %l_Lean_PersistentHashMap_foldlMAux___at_Lean_SMap_foldStage2___spec__2___rarg.exit, label %29

29:                                               ; preds = %28
  tail call void @lean_dec_ref_cold(ptr noundef nonnull %3) #3
  br label %l_Lean_PersistentHashMap_foldlMAux___at_Lean_SMap_foldStage2___spec__2___rarg.exit

lean_dec.exit.i:                                  ; preds = %lean_nat_lt.exit.i
  %30 = tail call ptr @l_Array_foldlMUnsafe_fold___at_Lean_SMap_foldStage2___spec__3___rarg(ptr noundef %3, ptr noundef nonnull %19, i64 noundef 0, i64 noundef %.mask.i, ptr noundef %4) #5
  br label %l_Lean_PersistentHashMap_foldlMAux___at_Lean_SMap_foldStage2___spec__2___rarg.exit

31:                                               ; preds = %lean_obj_tag.exit.i
  %32 = getelementptr inbounds nuw i8, ptr %8, i64 16
  %33 = load ptr, ptr %32, align 8, !tbaa !4
  %34 = tail call ptr @l_Lean_PersistentHashMap_foldlMAux_traverse___at_Lean_SMap_foldStage2___spec__4___rarg(ptr noundef %3, ptr noundef %19, ptr noundef %33, ptr nonnull poison, ptr noundef nonnull inttoptr (i64 1 to ptr), ptr noundef %4)
  br label %l_Lean_PersistentHashMap_foldlMAux___at_Lean_SMap_foldStage2___spec__2___rarg.exit

l_Lean_PersistentHashMap_foldlMAux___at_Lean_SMap_foldStage2___spec__2___rarg.exit: ; preds = %lean_dec.exit34.i, %26, %28, %29, %lean_dec.exit.i, %31
  %.2.i = phi ptr [ %34, %31 ], [ %30, %lean_dec.exit.i ], [ %4, %29 ], [ %4, %28 ], [ %4, %26 ], [ %4, %lean_dec.exit34.i ]
  ret ptr %.2.i
}